target datalayout = "e-m:e-p270:32:32-p271:32:32-p272:64:64-i64:64-i128:128-f80:128-n8:16:32:64-S128"
target triple = "x86_64-pc-linux-gnu"

%struct.btVectorX = type { %class.btAlignedObjectArray }
%class.btAlignedObjectArray = type <{ [4 x i8], i32, i32, [4 x i8], ptr, i8, [7 x i8] }>

; Function Attrs: inlinehint mustprogress nounwind uwtable
define linkonce_odr dso_local noundef i32 @_ZNK20btAlignedObjectArrayIfE4sizeEv(ptr noundef nonnull align 8 dereferenceable(25) %0) #3 comdat align 2 {
  %2 = alloca ptr, align 8
  store ptr %0, ptr %2, align 8, !tbaa !76
  %3 = load ptr, ptr %2, align 8
  %4 = getelementptr inbounds nuw %class.btAlignedObjectArray, ptr %3, i32 0, i32 1
  %5 = load i32, ptr %4, align 4, !tbaa !86
  ret i32 %5
}

; Function Attrs: inlinehint mustprogress nounwind uwtable
define linkonce_odr dso_local noundef nonnull align 4 dereferenceable(4) ptr @_ZNK20btAlignedObjectArrayIfEixEi(ptr noundef nonnull align 8 dereferenceable(25) %0, i32 noundef %1) #3 comdat align 2 {
  %3 = alloca ptr, align 8
  %4 = alloca i32, align 4
  store ptr %0, ptr %3, align 8, !tbaa !76
  store i32 %1, ptr %4, align 4, !tbaa !9
  %5 = load ptr, ptr %3, align 8
  %6 = getelementptr inbounds nuw %class.btAlignedObjectArray, ptr %5, i32 0, i32 4
  %7 = load ptr, ptr %6, align 8, !tbaa !87
  %8 = load i32, ptr %4, align 4, !tbaa !9
  %9 = sext i32 %8 to i64
  %10 = getelementptr inbounds float, ptr %7, i64 %9
  ret ptr %10
}

; Function Attrs: mustprogress nounwind uwtable
define linkonce_odr dso_local noundef i32 @_ZNK9btVectorXIfE4rowsEv(ptr noundef nonnull align 8 dereferenceable(32) %0) #1 comdat align 2 {
  %2 = alloca ptr, align 8
  store ptr %0, ptr %2, align 8, !tbaa !37
  %3 = load ptr, ptr %2, align 8
  %4 = getelementptr inbounds nuw %struct.btVectorX, ptr %3, i32 0, i32 0
  %5 = call noundef i32 @_ZNK20btAlignedObjectArrayIfE4sizeEv(ptr noundef nonnull align 8 dereferenceable(25) %4)
  ret i32 %5
}

; Function Attrs: mustprogress nounwind uwtable
define linkonce_odr dso_local noundef nonnull align 4 dereferenceable(4) ptr @_ZNK9btVectorXIfEixEi(ptr noundef nonnull align 8 dereferenceable(32) %0, i32 noundef %1) #1 comdat align 2 {
  %3 = alloca ptr, align 8
  %4 = alloca i32, align 4
  store ptr %0, ptr %3, align 8, !tbaa !37
  store i32 %1, ptr %4, align 4, !tbaa !9
  %5 = load ptr, ptr %3, align 8
  %6 = getelementptr inbounds nuw %struct.btVectorX, ptr %5, i32 0, i32 0
  %7 = load i32, ptr %4, align 4, !tbaa !9
  %8 = call noundef nonnull align 4 dereferenceable(4) ptr @_ZNK20btAlignedObjectArrayIfEixEi(ptr noundef nonnull align 8 dereferenceable(25) %6, i32 noundef %7)
  ret ptr %8
}

; Function Attrs: mustprogress uwtable
define linkonce_odr dso_local noundef i32 @_ZNK9btVectorXIfE4sizeEv(ptr noundef nonnull align 8 dereferenceable(32) %0) #2 comdat align 2 {
  %2 = alloca ptr, align 8
  store ptr %0, ptr %2, align 8, !tbaa !37
  %3 = load ptr, ptr %2, align 8
  %4 = call noundef i32 @_ZNK9btVectorXIfE4rowsEv(ptr noundef nonnull align 8 dereferenceable(32) %3)
  ret i32 %4
}

; Function Attrs: mustprogress uwtable
define dso_local noundef zeroext i1 @_ZN16btLemkeAlgorithm11greaterZeroERK9btVectorXIfE(ptr noundef nonnull align 8 dereferenceable(140) %0, ptr noundef nonnull align 8 dereferenceable(32) %1) #2 align 2 {
  %3 = alloca ptr, align 8
  %4 = alloca ptr, align 8
  %5 = alloca i8, align 1
  %6 = alloca i32, align 4
  %7 = alloca i32, align 4
  store ptr %0, ptr %3, align 8, !tbaa !20
  store ptr %1, ptr %4, align 8, !tbaa !37
  call void @llvm.lifetime.start.p0(i64 1, ptr %5) #10
  store i8 1, ptr %5, align 1, !tbaa !12
  call void @llvm.lifetime.start.p0(i64 4, ptr %6) #10
  store i32 0, ptr %6, align 4, !tbaa !9
  br label %8

8:                                                ; preds = %22, %2
  %9 = load i32, ptr %6, align 4, !tbaa !9
  %10 = load ptr, ptr %4, align 8, !tbaa !37
  %11 = call noundef i32 @_ZNK9btVectorXIfE4sizeEv(ptr noundef nonnull align 8 dereferenceable(32) %10)
  %12 = icmp slt i32 %9, %11
  br i1 %12, label %14, label %13

13:                                               ; preds = %8
  store i32 2, ptr %7, align 4
  br label %25

14:                                               ; preds = %8
  %15 = load ptr, ptr %4, align 8, !tbaa !37
  %16 = load i32, ptr %6, align 4, !tbaa !9
  %17 = call noundef nonnull align 4 dereferenceable(4) ptr @_ZNK9btVectorXIfEixEi(ptr noundef nonnull align 8 dereferenceable(32) %15, i32 noundef %16)
  %18 = load float, ptr %17, align 4, !tbaa !16
  %19 = fcmp olt float %18, 0.000000e+00
  br i1 %19, label %20, label %21

20:                                               ; preds = %14
  store i8 0, ptr %5, align 1, !tbaa !12
  store i32 2, ptr %7, align 4
  br label %25

21:                                               ; preds = %14
  br label %22

22:                                               ; preds = %21
  %23 = load i32, ptr %6, align 4, !tbaa !9
  %24 = add nsw i32 %23, 1
  store i32 %24, ptr %6, align 4, !tbaa !9
  br label %8, !llvm.loop !73

25:                                               ; preds = %20, %13
  call void @llvm.lifetime.end.p0(i64 4, ptr %6) #10
  br label %26

26:                                               ; preds = %25
  %27 = load i8, ptr %5, align 1, !tbaa !12, !range !14, !noundef !15
  %28 = trunc i8 %27 to i1
  store i32 1, ptr %7, align 4
  call void @llvm.lifetime.end.p0(i64 1, ptr %5) #10
  ret i1 %28
}