; Function Attrs: mustprogress nofree norecurse nosync nounwind willreturn memory(read, inaccessiblemem: none) uwtable
define dso_local noundef zeroext i1 @_ZN16btLemkeAlgorithm11greaterZeroERK9btVectorXIfE(ptr noundef nonnull readnone align 8 captures(none) dereferenceable(140) %0, ptr noundef nonnull readonly align 8 captures(none) dereferenceable(32) %1) local_unnamed_addr #5 align 2 {
  %3 = getelementptr inbounds nuw i8, ptr %1, i64 4
  %4 = load i32, ptr %3, align 4, !tbaa !24
  %5 = icmp slt i32 %4, 1
  br i1 %5, label %._crit_edge, label %.lr.ph

.lr.ph:                                           ; preds = %2
  %6 = getelementptr inbounds nuw i8, ptr %1, i64 16
  %7 = load ptr, ptr %6, align 8, !tbaa !26
  %wide.trip.count = zext nneg i32 %4 to i64
  br label %8

8:                                                ; preds = %8, %.lr.ph
  %indvars.iv = phi i64 [ 0, %.lr.ph ], [ %indvars.iv.next, %8 ]
  %9 = getelementptr inbounds nuw float, ptr %7, i64 %indvars.iv
  %10 = load float, ptr %9, align 4, !tbaa !4
  %11 = fcmp uge float %10, 0.000000e+00
  %indvars.iv.next = add nuw nsw i64 %indvars.iv, 1
  %exitcond.not = icmp ne i64 %indvars.iv.next, %wide.trip.count
  %or.cond.not = select i1 %11, i1 %exitcond.not, i1 false
  br i1 %or.cond.not, label %8, label %._crit_edge, !llvm.loop !71

._crit_edge:                                      ; preds = %8, %2
  %.lcssa = phi i1 [ true, %2 ], [ %11, %8 ]
  ret i1 %.lcssa
}